libcparameter.so:pfwApplyConfigurations
libcparameter.so:pfwBindParameter
libcparameter.so:pfwCreate
libcparameter.so:pfwDestroy
libcparameter.so:pfwFree
libcparameter.so:pfwGetCriterion
libcparameter.so:pfwGetIntParameter
libcparameter.so:pfwGetLastError
libcparameter.so:pfwGetStringParameter
libcparameter.so:pfwSetCriterion
libcparameter.so:pfwSetIntParameter
libcparameter.so:pfwSetStringParameter
libcparameter.so:pfwStart
libcparameter.so:pfwUnbindParameter
libparameter.so:_ZN10CSubsystem10needResyncEb
libparameter.so:_ZN10CSubsystem16structureFromXmlERK11CXmlElementR22CXmlSerializingContext
libparameter.so:_ZN10CSubsystem20addContextMappingKeyERKNSt7__cxx1112basic_stringIcSt11char_traitsIcESaIcEEE
libparameter.so:_ZN10CSubsystem20mapSubsystemElementsERNSt7__cxx1112basic_stringIcSt11char_traitsIcESaIcEEE
libparameter.so:_ZN10CSubsystem25addSubsystemObjectFactoryEP23CSubsystemObjectCreator
libparameter.so:_ZN10CSubsystem29handleSubsystemObjectCreationEP28CInstanceConfigurableElementR15CMappingContextRbRNSt7__cxx1112basic_stringIcSt11char_traitsIcESaIcEEE
libparameter.so:_ZN10CSubsystem6mapEndEv
libparameter.so:_ZN10CSubsystem8mapBeginEP28CInstanceConfigurableElementRbRNSt7__cxx1112basic_stringIcSt11char_traitsIcESaIcEEE
libparameter.so:_ZN10CSubsystemC1ERKNSt7__cxx1112basic_stringIcSt11char_traitsIcESaIcEEERN4core3log6LoggerE
libparameter.so:_ZN10CSubsystemC2ERKNSt7__cxx1112basic_stringIcSt11char_traitsIcESaIcEEERN4core3log6LoggerE
libparameter.so:_ZN10CSubsystemD0Ev
libparameter.so:_ZN10CSubsystemD1Ev
libparameter.so:_ZN10CSubsystemD2Ev
libparameter.so:_ZN11CXmlElement11createChildERS_RKNSt7__cxx1112basic_stringIcSt11char_traitsIcESaIcEEE
libparameter.so:_ZN11CXmlElement12setAttributeERKNSt7__cxx1112basic_stringIcSt11char_traitsIcESaIcEEEPKc
libparameter.so:_ZN11CXmlElement12setAttributeINSt7__cxx1112basic_stringIcSt11char_traitsIcESaIcEEEEEvRKS6_RKT_
libparameter.so:_ZN11CXmlElement12setAttributeIbEEvRKNSt7__cxx1112basic_stringIcSt11char_traitsIcESaIcEEERKT_
libparameter.so:_ZN11CXmlElement13setXmlElementEP8_xmlNode
libparameter.so:_ZN11CXmlElement14CChildIterator4nextERS_
libparameter.so:_ZN11CXmlElement14CChildIteratorC1ERKS_
libparameter.so:_ZN11CXmlElement14CChildIteratorC2ERKS_
libparameter.so:_ZN11CXmlElement14setTextContentERKNSt7__cxx1112basic_stringIcSt11char_traitsIcESaIcEEE
libparameter.so:_ZN11CXmlElement16setNameAttributeERKNSt7__cxx1112basic_stringIcSt11char_traitsIcESaIcEEE
libparameter.so:_ZN11CXmlElementC1EP8_xmlNode
libparameter.so:_ZN11CXmlElementC1Ev
libparameter.so:_ZN11CXmlElementC2EP8_xmlNode
libparameter.so:_ZN11CXmlElementC2Ev
libparameter.so:_ZN12CTypeElement14getMappingDataEv
libparameter.so:_ZN12CTypeElement7fromXmlERK11CXmlElementR22CXmlSerializingContext
libparameter.so:_ZN12CTypeElementC1ERKNSt7__cxx1112basic_stringIcSt11char_traitsIcESaIcEEE
libparameter.so:_ZN12CTypeElementC2ERKNSt7__cxx1112basic_stringIcSt11char_traitsIcESaIcEEE
libparameter.so:_ZN12CTypeElementD0Ev
libparameter.so:_ZN12CTypeElementD1Ev
libparameter.so:_ZN12CTypeElementD2Ev
libparameter.so:_ZN13CXmlDocSource16getSchemaBaseUriB5cxx11Ev
libparameter.so:_ZN13CXmlDocSource16setSchemaBaseUriERKNSt7__cxx1112basic_stringIcSt11char_traitsIcESaIcEEE
libparameter.so:_ZN13CXmlDocSource23isInstanceDocumentValidEv
libparameter.so:_ZN13CXmlDocSource5mkUriERKNSt7__cxx1112basic_stringIcSt11char_traitsIcESaIcEEES7_
libparameter.so:_ZN13CXmlDocSource8mkXmlDocERKNSt7__cxx1112basic_stringIcSt11char_traitsIcESaIcEEEbbR22CXmlSerializingContext
libparameter.so:_ZN13CXmlDocSource8populateER22CXmlSerializingContext
libparameter.so:_ZN13CXmlDocSourceC1EP7_xmlDocbP8_xmlNode
libparameter.so:_ZN13CXmlDocSourceC1EP7_xmlDocbRKNSt7__cxx1112basic_stringIcSt11char_traitsIcESaIcEEES9_S9_
libparameter.so:_ZN13CXmlDocSourceC2EP7_xmlDocbP8_xmlNode
libparameter.so:_ZN13CXmlDocSourceC2EP7_xmlDocbRKNSt7__cxx1112basic_stringIcSt11char_traitsIcESaIcEEES9_S9_
libparameter.so:_ZN13CXmlDocSourceD0Ev
libparameter.so:_ZN13CXmlDocSourceD1Ev
libparameter.so:_ZN13CXmlDocSourceD2Ev
libparameter.so:_ZN13ElementHandle10setAsBytesERKSt6vectorIhSaIhEERNSt7__cxx1112basic_stringIcSt11char_traitsIcESaIcEEE
libparameter.so:_ZN13ElementHandle11getChildrenEv
libparameter.so:_ZN13ElementHandle11setAsDoubleEdRNSt7__cxx1112basic_stringIcSt11char_traitsIcESaIcEEE
libparameter.so:_ZN13ElementHandle11setAsStringERKNSt7__cxx1112basic_stringIcSt11char_traitsIcESaIcEEERS5_
libparameter.so:_ZN13ElementHandle12setAsBooleanEbRNSt7__cxx1112basic_stringIcSt11char_traitsIcESaIcEEE
libparameter.so:_ZN13ElementHandle12setAsIntegerEjRNSt7__cxx1112basic_stringIcSt11char_traitsIcESaIcEEE
libparameter.so:_ZN13ElementHandle16setAsDoubleArrayERKSt6vectorIdSaIdEERNSt7__cxx1112basic_stringIcSt11char_traitsIcESaIcEEE
libparameter.so:_ZN13ElementHandle16setAsStringArrayERKSt6vectorINSt7__cxx1112basic_stringIcSt11char_traitsIcESaIcEEESaIS6_EERS6_
libparameter.so:_ZN13ElementHandle17setAsBooleanArrayERKSt6vectorIbSaIbEERNSt7__cxx1112basic_stringIcSt11char_traitsIcESaIcEEE
libparameter.so:_ZN13ElementHandle17setAsIntegerArrayERKSt6vectorIjSaIjEERNSt7__cxx1112basic_stringIcSt11char_traitsIcESaIcEEE
libparameter.so:_ZN13ElementHandle18setAsSignedIntegerEiRNSt7__cxx1112basic_stringIcSt11char_traitsIcESaIcEEE
libparameter.so:_ZN13ElementHandle23setAsSignedIntegerArrayERKSt6vectorIiSaIiEERNSt7__cxx1112basic_stringIcSt11char_traitsIcESaIcEEE
libparameter.so:_ZN13ElementHandle8setAsXMLERKNSt7__cxx1112basic_stringIcSt11char_traitsIcESaIcEEERS5_
libparameter.so:_ZN13ElementHandleC1ER20CConfigurableElementR13CParameterMgr
libparameter.so:_ZN13ElementHandleC2ER20CConfigurableElementR13CParameterMgr
libparameter.so:_ZN14CParameterType7fromXmlERK11CXmlElementR22CXmlSerializingContext
libparameter.so:_ZN14CParameterType7setSizeEm
libparameter.so:_ZN14CParameterType7setUnitERKNSt7__cxx1112basic_stringIcSt11char_traitsIcESaIcEEE
libparameter.so:_ZN14CParameterTypeC1ERKNSt7__cxx1112basic_stringIcSt11char_traitsIcESaIcEEE
libparameter.so:_ZN14CParameterTypeC2ERKNSt7__cxx1112basic_stringIcSt11char_traitsIcESaIcEEE
libparameter.so:_ZN14DynamicLibrary18osSanitizePathNameERKNSt7__cxx1112basic_stringIcSt11char_traitsIcESaIcEEE
libparameter.so:_ZN14DynamicLibraryC1ERKNSt7__cxx1112basic_stringIcSt11char_traitsIcESaIcEEE
libparameter.so:_ZN14DynamicLibraryC2ERKNSt7__cxx1112basic_stringIcSt11char_traitsIcESaIcEEE
libparameter.so:_ZN14DynamicLibraryD1Ev
libparameter.so:_ZN14DynamicLibraryD2Ev
libparameter.so:_ZN15CElementLibrary17addElementBuilderERKNSt7__cxx1112basic_stringIcSt11char_traitsIcESaIcEEEPK15CElementBuilder
libparameter.so:_ZN15CElementLibrary5cleanEv
libparameter.so:_ZN15CElementLibraryD0Ev
libparameter.so:_ZN15CElementLibraryD1Ev
libparameter.so:_ZN15CElementLibraryD2Ev
libparameter.so:_ZN15CMappingContext7setItemEmPKNSt7__cxx1112basic_stringIcSt11char_traitsIcESaIcEEES7_
libparameter.so:_ZN16CSubsystemObject13receiveFromHWERNSt7__cxx1112basic_stringIcSt11char_traitsIcESaIcEEE
libparameter.so:_ZN16CSubsystemObject14blackboardReadEPvm
libparameter.so:_ZN16CSubsystemObject14toPlainIntegerEPK28CInstanceConfigurableElementi
libparameter.so:_ZN16CSubsystemObject15blackboardWriteEPKvm
libparameter.so:_ZN16CSubsystemObject4syncER20CParameterBlackboardbRNSt7__cxx1112basic_stringIcSt11char_traitsIcESaIcEEE
libparameter.so:_ZN16CSubsystemObject8accessHWEbRNSt7__cxx1112basic_stringIcSt11char_traitsIcESaIcEEE
libparameter.so:_ZN16CSubsystemObject8sendToHWERNSt7__cxx1112basic_stringIcSt11char_traitsIcESaIcEEE
libparameter.so:_ZN16CSubsystemObjectC1EP28CInstanceConfigurableElementRN4core3log6LoggerE
libparameter.so:_ZN16CSubsystemObjectC2EP28CInstanceConfigurableElementRN4core3log6LoggerE
libparameter.so:_ZN16CSubsystemObjectD0Ev
libparameter.so:_ZN16CSubsystemObjectD1Ev
libparameter.so:_ZN16CSubsystemObjectD2Ev
libparameter.so:_ZN17CXmlMemoryDocSink9doProcessER13CXmlDocSourceR22CXmlSerializingContext
libparameter.so:_ZN17CXmlMemoryDocSinkC1EP8IXmlSink
libparameter.so:_ZN17CXmlMemoryDocSinkC2EP8IXmlSink
libparameter.so:_ZN17CXmlStreamDocSink9doProcessER13CXmlDocSourceR22CXmlSerializingContext
libparameter.so:_ZN17CXmlStreamDocSinkC1ERSo
libparameter.so:_ZN17CXmlStreamDocSinkC2ERSo
libparameter.so:_ZN19CXmlMemoryDocSource4initEv
libparameter.so:_ZN19CXmlMemoryDocSource8populateER22CXmlSerializingContext
libparameter.so:_ZN19CXmlMemoryDocSourceC1EPK10IXmlSourcebRKNSt7__cxx1112basic_stringIcSt11char_traitsIcESaIcEEESA_SA_
libparameter.so:_ZN19CXmlMemoryDocSourceC2EPK10IXmlSourcebRKNSt7__cxx1112basic_stringIcSt11char_traitsIcESaIcEEESA_SA_
libparameter.so:_ZN20CConfigurableElement29addAttachedConfigurableDomainEPK19CConfigurableDomain
libparameter.so:_ZN20CConfigurableElement32removeAttachedConfigurableDomainEPK19CConfigurableDomain
libparameter.so:_ZN20CConfigurableElement7fromXmlERK11CXmlElementR22CXmlSerializingContext
libparameter.so:_ZN20CConfigurableElement9setOffsetEm
libparameter.so:_ZN20CConfigurableElementC1ERKNSt7__cxx1112basic_stringIcSt11char_traitsIcESaIcEEE
libparameter.so:_ZN20CConfigurableElementC2ERKNSt7__cxx1112basic_stringIcSt11char_traitsIcESaIcEEE
libparameter.so:_ZN22CXmlSerializingContext17appendLineToErrorERKNSt7__cxx1112basic_stringIcSt11char_traitsIcESaIcEEE
libparameter.so:_ZN22CXmlSerializingContext22structuredErrorHandlerEPvP9_xmlError
libparameter.so:_ZN22CXmlSerializingContextC1ERNSt7__cxx1112basic_stringIcSt11char_traitsIcESaIcEEE
libparameter.so:_ZN22CXmlSerializingContextC2ERNSt7__cxx1112basic_stringIcSt11char_traitsIcESaIcEEE
libparameter.so:_ZN22CXmlSerializingContextD1Ev
libparameter.so:_ZN22CXmlSerializingContextD2Ev
libparameter.so:_ZN23CSubsystemObjectCreatorC1ERKNSt7__cxx1112basic_stringIcSt11char_traitsIcESaIcEEEjm
libparameter.so:_ZN23CSubsystemObjectCreatorC2ERKNSt7__cxx1112basic_stringIcSt11char_traitsIcESaIcEEEjm
libparameter.so:_ZN25CFormattedSubsystemObject15isAmendKeyValidEm
libparameter.so:_ZN25CFormattedSubsystemObject18formatMappingValueERKNSt7__cxx1112basic_stringIcSt11char_traitsIcESaIcEEEmmRK15CMappingContext
libparameter.so:_ZN25CFormattedSubsystemObjectC1EP28CInstanceConfigurableElementRN4core3log6LoggerE
libparameter.so:_ZN25CFormattedSubsystemObjectC1EP28CInstanceConfigurableElementRN4core3log6LoggerERKNSt7__cxx1112basic_stringIcSt11char_traitsIcESaIcEEE
libparameter.so:_ZN25CFormattedSubsystemObjectC1EP28CInstanceConfigurableElementRN4core3log6LoggerERKNSt7__cxx1112basic_stringIcSt11char_traitsIcESaIcEEEmmRK15CMappingContext
libparameter.so:_ZN25CFormattedSubsystemObjectC2EP28CInstanceConfigurableElementRN4core3log6LoggerE
libparameter.so:_ZN25CFormattedSubsystemObjectC2EP28CInstanceConfigurableElementRN4core3log6LoggerERKNSt7__cxx1112basic_stringIcSt11char_traitsIcESaIcEEE
libparameter.so:_ZN25CFormattedSubsystemObjectC2EP28CInstanceConfigurableElementRN4core3log6LoggerERKNSt7__cxx1112basic_stringIcSt11char_traitsIcESaIcEEEmmRK15CMappingContext
libparameter.so:_ZN26CParameterMgrFullConnector11setAutoSyncEbRNSt7__cxx1112basic_stringIcSt11char_traitsIcESaIcEEE
libparameter.so:_ZN26CParameterMgrFullConnector12createDomainERKNSt7__cxx1112basic_stringIcSt11char_traitsIcESaIcEEERS5_
libparameter.so:_ZN26CParameterMgrFullConnector12deleteDomainERKNSt7__cxx1112basic_stringIcSt11char_traitsIcESaIcEEERS5_
libparameter.so:_ZN26CParameterMgrFullConnector12renameDomainERKNSt7__cxx1112basic_stringIcSt11char_traitsIcESaIcEEES7_RS5_
libparameter.so:_ZN26CParameterMgrFullConnector13setTuningModeEbRNSt7__cxx1112basic_stringIcSt11char_traitsIcESaIcEEE
libparameter.so:_ZN26CParameterMgrFullConnector13setValueSpaceEb
libparameter.so:_ZN26CParameterMgrFullConnector16deleteAllDomainsERNSt7__cxx1112basic_stringIcSt11char_traitsIcESaIcEEE
libparameter.so:_ZN26CParameterMgrFullConnector16importDomainsXmlERKNSt7__cxx1112basic_stringIcSt11char_traitsIcESaIcEEEbbRS5_
libparameter.so:_ZN26CParameterMgrFullConnector17saveConfigurationERKNSt7__cxx1112basic_stringIcSt11char_traitsIcESaIcEEES7_RS5_
libparameter.so:_ZN26CParameterMgrFullConnector18getApplicationRuleERKNSt7__cxx1112basic_stringIcSt11char_traitsIcESaIcEEES7_RS5_
libparameter.so:_ZN26CParameterMgrFullConnector18setApplicationRuleERKNSt7__cxx1112basic_stringIcSt11char_traitsIcESaIcEEES7_S7_RS5_
libparameter.so:_ZN26CParameterMgrFullConnector18setElementSequenceERKNSt7__cxx1112basic_stringIcSt11char_traitsIcESaIcEEES7_RKSt6vectorIS5_SaIS5_EERS5_
libparameter.so:_ZN26CParameterMgrFullConnector18setOutputRawFormatEb
libparameter.so:_ZN26CParameterMgrFullConnector19createConfigurationERKNSt7__cxx1112basic_stringIcSt11char_traitsIcESaIcEEES7_RS5_
libparameter.so:_ZN26CParameterMgrFullConnector19deleteConfigurationERKNSt7__cxx1112basic_stringIcSt11char_traitsIcESaIcEEES7_RS5_
libparameter.so:_ZN26CParameterMgrFullConnector19renameConfigurationERKNSt7__cxx1112basic_stringIcSt11char_traitsIcESaIcEEES7_S7_RS5_
libparameter.so:_ZN26CParameterMgrFullConnector20accessParameterValueERKNSt7__cxx1112basic_stringIcSt11char_traitsIcESaIcEEERS5_bS8_
libparameter.so:_ZN26CParameterMgrFullConnector20clearApplicationRuleERKNSt7__cxx1112basic_stringIcSt11char_traitsIcESaIcEEES7_RS5_
libparameter.so:_ZN26CParameterMgrFullConnector20createCommandHandlerEv
libparameter.so:_ZN26CParameterMgrFullConnector20getSequenceAwarenessERKNSt7__cxx1112basic_stringIcSt11char_traitsIcESaIcEEERbRS5_
libparameter.so:_ZN26CParameterMgrFullConnector20restoreConfigurationERKNSt7__cxx1112basic_stringIcSt11char_traitsIcESaIcEEES7_RNS0_4listIS5_SaIS5_EEE
libparameter.so:_ZN26CParameterMgrFullConnector20setSequenceAwarenessERKNSt7__cxx1112basic_stringIcSt11char_traitsIcESaIcEEEbRS5_
libparameter.so:_ZN26CParameterMgrFullConnector21importSingleDomainXmlERKNSt7__cxx1112basic_stringIcSt11char_traitsIcESaIcEEEbRS5_
libparameter.so:_ZN26CParameterMgrFullConnector21importSingleDomainXmlERKNSt7__cxx1112basic_stringIcSt11char_traitsIcESaIcEEEbbbRS5_
libparameter.so:_ZN26CParameterMgrFullConnector24accessConfigurationValueERKNSt7__cxx1112basic_stringIcSt11char_traitsIcESaIcEEES7_S7_RS5_bS8_
libparameter.so:_ZN26CParameterMgrFullConnector25setValidateSchemasOnStartEb
libparameter.so:_ZN26CParameterMgrFullConnector28setFailureOnMissingSubsystemEb
libparameter.so:_ZN26CParameterMgrFullConnector30addConfigurableElementToDomainERKNSt7__cxx1112basic_stringIcSt11char_traitsIcESaIcEEES7_RS5_
libparameter.so:_ZN26CParameterMgrFullConnector30setFailureOnFailedSettingsLoadEb
libparameter.so:_ZN26CParameterMgrFullConnector35removeConfigurableElementFromDomainERKNSt7__cxx1112basic_stringIcSt11char_traitsIcESaIcEEES7_RS5_
libparameter.so:_ZN26CParameterMgrFullConnector4syncERNSt7__cxx1112basic_stringIcSt11char_traitsIcESaIcEEE
libparameter.so:_ZN26CParameterMgrFullConnector5splitERKNSt7__cxx1112basic_stringIcSt11char_traitsIcESaIcEEES7_RS5_
libparameter.so:_ZN26CParameterMgrFullConnectorC1ERKNSt7__cxx1112basic_stringIcSt11char_traitsIcESaIcEEE
libparameter.so:_ZN26CParameterMgrFullConnectorC2ERKNSt7__cxx1112basic_stringIcSt11char_traitsIcESaIcEEE
libparameter.so:_ZN28CInstanceConfigurableElement11unsetSyncerEv
libparameter.so:_ZN28CInstanceConfigurableElement18checkPathExhaustedER14CPathNavigatorRN7utility12ErrorContextE
libparameter.so:_ZN28CInstanceConfigurableElement3mapER7IMapperRNSt7__cxx1112basic_stringIcSt11char_traitsIcESaIcEEE
libparameter.so:_ZN28CInstanceConfigurableElement9setSyncerEP7ISyncer
libparameter.so:_ZN28CInstanceConfigurableElementC1ERKNSt7__cxx1112basic_stringIcSt11char_traitsIcESaIcEEEPK12CTypeElement
libparameter.so:_ZN28CInstanceConfigurableElementC2ERKNSt7__cxx1112basic_stringIcSt11char_traitsIcESaIcEEEPK12CTypeElement
libparameter.so:_ZN30CParameterMgrPlatformConnector12setSchemaUriERKNSt7__cxx1112basic_stringIcSt11char_traitsIcESaIcEEE
libparameter.so:_ZN30CParameterMgrPlatformConnector19applyConfigurationsEv
libparameter.so:_ZN30CParameterMgrPlatformConnector24createSelectionCriterionERKNSt7__cxx1112basic_stringIcSt11char_traitsIcESaIcEEEPK32ISelectionCriterionTypeInterface
libparameter.so:_ZN30CParameterMgrPlatformConnector25setForceNoRemoteInterfaceEb
libparameter.so:_ZN30CParameterMgrPlatformConnector25setValidateSchemasOnStartEbRNSt7__cxx1112basic_stringIcSt11char_traitsIcESaIcEEE
libparameter.so:_ZN30CParameterMgrPlatformConnector28createSelectionCriterionTypeEb
libparameter.so:_ZN30CParameterMgrPlatformConnector28setFailureOnMissingSubsystemEbRNSt7__cxx1112basic_stringIcSt11char_traitsIcESaIcEEE
libparameter.so:_ZN30CParameterMgrPlatformConnector30setFailureOnFailedSettingsLoadEbRNSt7__cxx1112basic_stringIcSt11char_traitsIcESaIcEEE
libparameter.so:_ZN30CParameterMgrPlatformConnector4infoERKNSt7__cxx1112basic_stringIcSt11char_traitsIcESaIcEEE
libparameter.so:_ZN30CParameterMgrPlatformConnector5startERNSt7__cxx1112basic_stringIcSt11char_traitsIcESaIcEEE
libparameter.so:_ZN30CParameterMgrPlatformConnector7warningERKNSt7__cxx1112basic_stringIcSt11char_traitsIcESaIcEEE
libparameter.so:_ZN30CParameterMgrPlatformConnector9setLoggerEPNS_7ILoggerE
libparameter.so:_ZN30CParameterMgrPlatformConnectorC1ERKNSt7__cxx1112basic_stringIcSt11char_traitsIcESaIcEEE
libparameter.so:_ZN30CParameterMgrPlatformConnectorC2ERKNSt7__cxx1112basic_stringIcSt11char_traitsIcESaIcEEE
libparameter.so:_ZN30CParameterMgrPlatformConnectorD0Ev
libparameter.so:_ZN30CParameterMgrPlatformConnectorD1Ev
libparameter.so:_ZN30CParameterMgrPlatformConnectorD2Ev
libparameter.so:_ZN7details7getNameB5cxx11ERK11CXmlElement
libparameter.so:_ZN7utility11appendTitleERNSt7__cxx1112basic_stringIcSt11char_traitsIcESaIcEEERKS5_
libparameter.so:_ZN7utility13isHexadecimalERKNSt7__cxx1112basic_stringIcSt11char_traitsIcESaIcEEE
libparameter.so:_ZN7utility8asStringERKSt3mapINSt7__cxx1112basic_stringIcSt11char_traitsIcESaIcEEES6_St4lessIS6_ESaISt4pairIKS6_S6_EEERSA_SG_
libparameter.so:_ZN8CElement11createChildERK11CXmlElementR22CXmlSerializingContext
libparameter.so:_ZN8CElement11removeChildEPS_
libparameter.so:_ZN8CElement14findDescendantER14CPathNavigator
libparameter.so:_ZN8CElement14removeChildrenEv
libparameter.so:_ZN8CElement14setDescriptionERKNSt7__cxx1112basic_stringIcSt11char_traitsIcESaIcEEE
libparameter.so:_ZN8CElement15findChildOfKindERKNSt7__cxx1112basic_stringIcSt11char_traitsIcESaIcEEE
libparameter.so:_ZN8CElement4initERNSt7__cxx1112basic_stringIcSt11char_traitsIcESaIcEEE
libparameter.so:_ZN8CElement5cleanEv
libparameter.so:_ZN8CElement6renameERKNSt7__cxx1112basic_stringIcSt11char_traitsIcESaIcEEERS5_
libparameter.so:_ZN8CElement7fromXmlERK11CXmlElementR22CXmlSerializingContext
libparameter.so:_ZN8CElement7setNameERKNSt7__cxx1112basic_stringIcSt11char_traitsIcESaIcEEE
libparameter.so:_ZN8CElement8addChildEPS_
libparameter.so:_ZN8CElement8getChildEm
libparameter.so:_ZN8CElement9findChildERKNSt7__cxx1112basic_stringIcSt11char_traitsIcESaIcEEE
libparameter.so:_ZN8CElement9getParentEv
libparameter.so:_ZN8CElementC1ERKNSt7__cxx1112basic_stringIcSt11char_traitsIcESaIcEEE
libparameter.so:_ZN8CElementC2ERKNSt7__cxx1112basic_stringIcSt11char_traitsIcESaIcEEE
libparameter.so:_ZN8CElementD0Ev
libparameter.so:_ZN8CElementD1Ev
libparameter.so:_ZN8CElementD2Ev
libparameter.so:_ZN9Tokenizer5splitB5cxx11Ev
libparameter.so:_ZN9TokenizerC1ERKNSt7__cxx1112basic_stringIcSt11char_traitsIcESaIcEEES7_b
libparameter.so:_ZN9TokenizerC2ERKNSt7__cxx1112basic_stringIcSt11char_traitsIcESaIcEEES7_b
libparameter.so:_ZNK10CSubsystem10getMappingERNSt7__cxx114listIPK20CConfigurableElementSaIS4_EEE
libparameter.so:_ZNK10CSubsystem14getMappingDataERKNSt7__cxx1112basic_stringIcSt11char_traitsIcESaIcEEERPS6_
libparameter.so:_ZNK10CSubsystem15getMappingErrorERKNSt7__cxx1112basic_stringIcSt11char_traitsIcESaIcEEES7_PK20CConfigurableElement
libparameter.so:_ZNK10CSubsystem16setDefaultValuesER23CParameterAccessContext
libparameter.so:_ZNK10CSubsystem19getFormattedMappingB5cxx11Ev
libparameter.so:_ZNK10CSubsystem20handleMappingContextEPK20CConfigurableElementR15CMappingContextRNSt7__cxx1112basic_stringIcSt11char_traitsIcESaIcEEE
libparameter.so:_ZNK10CSubsystem21formatMappingDataListERKNSt7__cxx114listIPK20CConfigurableElementSaIS4_EEE
libparameter.so:_ZNK10CSubsystem21getBelongingSubsystemEv
libparameter.so:_ZNK10CSubsystem32getFormattedSubsystemMappingDataB5cxx11EPK28CInstanceConfigurableElement
libparameter.so:_ZNK10CSubsystem33findSubsystemLevelMappingKeyValueEPK28CInstanceConfigurableElementRNSt7__cxx1112basic_stringIcSt11char_traitsIcESaIcEEES9_
libparameter.so:_ZNK10CSubsystem42findSubsystemObjectFromConfigurableElementEPK28CInstanceConfigurableElement
libparameter.so:_ZNK10CSubsystem7getKindB5cxx11Ev
libparameter.so:_ZNK10CSubsystem7isAliveEv
libparameter.so:_ZNK11CXmlElement12getAttributeINSt7__cxx1112basic_stringIcSt11char_traitsIcESaIcEEEEEbRKS6_RT_
libparameter.so:_ZNK11CXmlElement12hasAttributeERKNSt7__cxx1112basic_stringIcSt11char_traitsIcESaIcEEE
libparameter.so:_ZNK11CXmlElement14getTextContentB5cxx11Ev
libparameter.so:_ZNK11CXmlElement15getChildElementERKNSt7__cxx1112basic_stringIcSt11char_traitsIcESaIcEEERS_
libparameter.so:_ZNK11CXmlElement15getChildElementERKNSt7__cxx1112basic_stringIcSt11char_traitsIcESaIcEEES7_RS_
libparameter.so:_ZNK11CXmlElement16getNameAttributeB5cxx11Ev
libparameter.so:_ZNK11CXmlElement16getParentElementERS_
libparameter.so:_ZNK11CXmlElement18getNbChildElementsEv
libparameter.so:_ZNK11CXmlElement7getPathB5cxx11Ev
libparameter.so:_ZNK11CXmlElement7getTypeB5cxx11Ev
libparameter.so:_ZNK12CTypeElement11instantiateEv
libparameter.so:_ZNK12CTypeElement14getArrayLengthEv
libparameter.so:_ZNK12CTypeElement14getMappingDataERKNSt7__cxx1112basic_stringIcSt11char_traitsIcESaIcEEERPS6_
libparameter.so:_ZNK12CTypeElement14hasMappingDataEv
libparameter.so:_ZNK12CTypeElement14showPropertiesERNSt7__cxx1112basic_stringIcSt11char_traitsIcESaIcEEE
libparameter.so:_ZNK12CTypeElement14toPlainIntegerEi
libparameter.so:_ZNK12CTypeElement19getFormattedMappingB5cxx11EPKS_
libparameter.so:_ZNK12CTypeElement19getFormattedMappingB5cxx11Ev
libparameter.so:_ZNK12CTypeElement5toXmlER11CXmlElementR22CXmlSerializingContext
libparameter.so:_ZNK12CTypeElement8isScalarEv
libparameter.so:_ZNK12CTypeElement8populateEP8CElement
libparameter.so:_ZNK13CXmlDocSource10isParsableEv
libparameter.so:_ZNK13CXmlDocSource12getSchemaUriB5cxx11Ev
libparameter.so:_ZNK13CXmlDocSource14getRootElementER11CXmlElement
libparameter.so:_ZNK13CXmlDocSource18getRootElementNameB5cxx11Ev
libparameter.so:_ZNK13CXmlDocSource29getRootElementAttributeStringERKNSt7__cxx1112basic_stringIcSt11char_traitsIcESaIcEEE
libparameter.so:_ZNK13CXmlDocSource6getDocEv
libparameter.so:_ZNK13ElementHandle10getAsBytesERSt6vectorIhSaIhEERNSt7__cxx1112basic_stringIcSt11char_traitsIcESaIcEEE
libparameter.so:_ZNK13ElementHandle11getAsDoubleERdRNSt7__cxx1112basic_stringIcSt11char_traitsIcESaIcEEE
libparameter.so:_ZNK13ElementHandle11getAsStringERNSt7__cxx1112basic_stringIcSt11char_traitsIcESaIcEEES6_
libparameter.so:_ZNK13ElementHandle11isParameterEv
libparameter.so:_ZNK13ElementHandle12getAsBooleanERbRNSt7__cxx1112basic_stringIcSt11char_traitsIcESaIcEEE
libparameter.so:_ZNK13ElementHandle12getAsIntegerERjRNSt7__cxx1112basic_stringIcSt11char_traitsIcESaIcEEE
libparameter.so:_ZNK13ElementHandle14getArrayLengthEv
libparameter.so:_ZNK13ElementHandle14getDescriptionB5cxx11Ev
libparameter.so:_ZNK13ElementHandle14getMappingDataERKNSt7__cxx1112basic_stringIcSt11char_traitsIcESaIcEEERS5_
libparameter.so:_ZNK13ElementHandle16checkGetValidityEbRNSt7__cxx1112basic_stringIcSt11char_traitsIcESaIcEEE
libparameter.so:_ZNK13ElementHandle16checkSetValidityEmRNSt7__cxx1112basic_stringIcSt11char_traitsIcESaIcEEE
libparameter.so:_ZNK13ElementHandle16getAsDoubleArrayERSt6vectorIdSaIdEERNSt7__cxx1112basic_stringIcSt11char_traitsIcESaIcEEE
libparameter.so:_ZNK13ElementHandle16getAsStringArrayERSt6vectorINSt7__cxx1112basic_stringIcSt11char_traitsIcESaIcEEESaIS6_EERS6_
libparameter.so:_ZNK13ElementHandle17getAsBooleanArrayERSt6vectorIbSaIbEERNSt7__cxx1112basic_stringIcSt11char_traitsIcESaIcEEE
libparameter.so:_ZNK13ElementHandle17getAsIntegerArrayERSt6vectorIjSaIjEERNSt7__cxx1112basic_stringIcSt11char_traitsIcESaIcEEE
libparameter.so:_ZNK13ElementHandle17getStructureAsXMLERNSt7__cxx1112basic_stringIcSt11char_traitsIcESaIcEEES6_
libparameter.so:_ZNK13ElementHandle18getAsSignedIntegerERiRNSt7__cxx1112basic_stringIcSt11char_traitsIcESaIcEEE
libparameter.so:_ZNK13ElementHandle23getAsSignedIntegerArrayERSt6vectorIiSaIiEERNSt7__cxx1112basic_stringIcSt11char_traitsIcESaIcEEE
libparameter.so:_ZNK13ElementHandle7getKindB5cxx11Ev
libparameter.so:_ZNK13ElementHandle7getNameB5cxx11Ev
libparameter.so:_ZNK13ElementHandle7getPathB5cxx11Ev
libparameter.so:_ZNK13ElementHandle7getSizeEv
libparameter.so:_ZNK13ElementHandle7isArrayEv
libparameter.so:_ZNK13ElementHandle7isRogueEv
libparameter.so:_ZNK13ElementHandle8getAsXMLERNSt7__cxx1112basic_stringIcSt11char_traitsIcESaIcEEES6_
libparameter.so:_ZNK14CParameterType10signExtendERi
libparameter.so:_ZNK14CParameterType10signExtendERl
libparameter.so:_ZNK14CParameterType11isEncodableEjb
libparameter.so:_ZNK14CParameterType11isEncodableEmb
libparameter.so:_ZNK14CParameterType12toBlackboardEbRjR23CParameterAccessContext
libparameter.so:_ZNK14CParameterType12toBlackboardEdRjR23CParameterAccessContext
libparameter.so:_ZNK14CParameterType12toBlackboardEiRjR23CParameterAccessContext
libparameter.so:_ZNK14CParameterType12toBlackboardEjRjR23CParameterAccessContext
libparameter.so:_ZNK14CParameterType13doInstantiateEv
libparameter.so:_ZNK14CParameterType13makeEncodableEj
libparameter.so:_ZNK14CParameterType14fromBlackboardERbjR23CParameterAccessContext
libparameter.so:_ZNK14CParameterType14fromBlackboardERdjR23CParameterAccessContext
libparameter.so:_ZNK14CParameterType14fromBlackboardERijR23CParameterAccessContext
libparameter.so:_ZNK14CParameterType14fromBlackboardERjjR23CParameterAccessContext
libparameter.so:_ZNK14CParameterType14showPropertiesERNSt7__cxx1112basic_stringIcSt11char_traitsIcESaIcEEE
libparameter.so:_ZNK14CParameterType15getDefaultValueEv
libparameter.so:_ZNK14CParameterType19setXmlUnitAttributeER11CXmlElement
libparameter.so:_ZNK14CParameterType25handleValueSpaceAttributeER11CXmlElementR27CConfigurationAccessContext
libparameter.so:_ZNK14CParameterType5toXmlER11CXmlElementR22CXmlSerializingContext
libparameter.so:_ZNK14CParameterType7getSizeEv
libparameter.so:_ZNK14CParameterType7getUnitB5cxx11Ev
libparameter.so:_ZNK14CParameterType8populateEP8CElement
libparameter.so:_ZNK14DynamicLibrary11osGetSymbolERKNSt7__cxx1112basic_stringIcSt11char_traitsIcESaIcEEE
libparameter.so:_ZNK15CElementLibrary13createElementERK11CXmlElement
libparameter.so:_ZNK15CElementLibrary14getBuilderTypeB5cxx11ERK11CXmlElement
libparameter.so:_ZNK15CMappingContext16getItemAsIntegerEm
libparameter.so:_ZNK15CMappingContext4iSetEm
libparameter.so:_ZNK15CMappingContext7getItemB5cxx11Em
libparameter.so:_ZNK15CMappingContext7getItemERKNSt7__cxx1112basic_stringIcSt11char_traitsIcESaIcEEE
libparameter.so:_ZNK16CSubsystemObject12getSubsystemEv
libparameter.so:_ZNK16CSubsystemObject16setDefaultValuesER20CParameterBlackboard
libparameter.so:_ZNK16CSubsystemObject21getBlackboardLocationEv
libparameter.so:_ZNK16CSubsystemObject22getConfigurableElementEv
libparameter.so:_ZNK16CSubsystemObject24getFormattedMappingValueB5cxx11Ev
libparameter.so:_ZNK16CSubsystemObject7getSizeEv
libparameter.so:_ZNK16CSubsystemObject9getOffsetEv
libparameter.so:_ZNK20CConfigurableElement11accessValueER14CPathNavigatorRNSt7__cxx1112basic_stringIcSt11char_traitsIcESaIcEEEbR23CParameterAccessContext
libparameter.so:_ZNK20CConfigurableElement11isParameterEv
libparameter.so:_ZNK20CConfigurableElement11listDomainsERKNSt7__cxx114listIPK19CConfigurableDomainSaIS4_EEERNS0_12basic_stringIcSt11char_traitsIcESaIcEEEb
libparameter.so:_ZNK20CConfigurableElement12getFootPrintEv
libparameter.so:_ZNK20CConfigurableElement13fillSyncerSetER10CSyncerSet
libparameter.so:_ZNK20CConfigurableElement14showPropertiesERNSt7__cxx1112basic_stringIcSt11char_traitsIcESaIcEEE
libparameter.so:_ZNK20CConfigurableElement16setDefaultValuesER23CParameterAccessContext
libparameter.so:_ZNK20CConfigurableElement17listRogueElementsERNSt7__cxx1112basic_stringIcSt11char_traitsIcESaIcEEE
libparameter.so:_ZNK20CConfigurableElement18getSettingsAsBytesERSt6vectorIhSaIhEER23CParameterAccessContext
libparameter.so:_ZNK20CConfigurableElement18setSettingsAsBytesERKSt6vectorIhSaIhEER23CParameterAccessContext
libparameter.so:_ZNK20CConfigurableElement19getBelongingDomainsERNSt7__cxx114listIPK19CConfigurableDomainSaIS4_EEE
libparameter.so:_ZNK20CConfigurableElement20getFootprintAsStringB5cxx11Ev
libparameter.so:_ZNK20CConfigurableElement20listBelongingDomainsERNSt7__cxx1112basic_stringIcSt11char_traitsIcESaIcEEEb
libparameter.so:_ZNK20CConfigurableElement20serializeXmlSettingsER11CXmlElementR27CConfigurationAccessContext
libparameter.so:_ZNK20CConfigurableElement21getBelongingSubsystemEv
libparameter.so:_ZNK20CConfigurableElement21hasNoDomainAssociatedEv
libparameter.so:_ZNK20CConfigurableElement21listAssociatedDomainsERNSt7__cxx1112basic_stringIcSt11char_traitsIcESaIcEEEb
libparameter.so:_ZNK20CConfigurableElement23createAreaConfigurationEPK10CSyncerSet
libparameter.so:_ZNK20CConfigurableElement23getBelongingDomainCountEv
libparameter.so:_ZNK20CConfigurableElement24belongsToDomainAscendingEPK19CConfigurableDomain
libparameter.so:_ZNK20CConfigurableElement26containsConfigurableDomainEPK19CConfigurableDomain
libparameter.so:_ZNK20CConfigurableElement26hasNoValidDomainAssociatedEv
libparameter.so:_ZNK20CConfigurableElement27fillSyncerSetFromDescendantER10CSyncerSet
libparameter.so:_ZNK20CConfigurableElement27isOfConfigurableElementTypeEPK8CElement
libparameter.so:_ZNK20CConfigurableElement29getConfigurableElementContextB5cxx11Ev
libparameter.so:_ZNK20CConfigurableElement5toXmlER11CXmlElementR22CXmlSerializingContext
libparameter.so:_ZNK20CConfigurableElement7isRogueEv
libparameter.so:_ZNK20CConfigurableElement8logValueB5cxx11ER23CParameterAccessContext
libparameter.so:_ZNK20CConfigurableElement8logValueB5cxx11ERN7utility12ErrorContextE
libparameter.so:_ZNK20CConfigurableElement9belongsToEPK19CConfigurableDomain
libparameter.so:_ZNK20CConfigurableElement9getOffsetEv
libparameter.so:_ZNK20CConfigurableElement9getSyncerEv
libparameter.so:_ZNK23CSubsystemObjectCreator13getMappingKeyB5cxx11Ev
libparameter.so:_ZNK23CSubsystemObjectCreator15getAncestorMaskEv
libparameter.so:_ZNK23CSubsystemObjectCreator29getMaxConfigurableElementSizeEv
libparameter.so:_ZNK25CFormattedSubsystemObject24getFormattedMappingValueB5cxx11Ev
libparameter.so:_ZNK26CParameterMgrFullConnector12isAutoSyncOnEv
libparameter.so:_ZNK26CParameterMgrFullConnector14isTuningModeOnEv
libparameter.so:_ZNK26CParameterMgrFullConnector15isValueSpaceRawEv
libparameter.so:_ZNK26CParameterMgrFullConnector16exportDomainsXmlERNSt7__cxx1112basic_stringIcSt11char_traitsIcESaIcEEEbbS6_
libparameter.so:_ZNK26CParameterMgrFullConnector19getParameterMappingERKNSt7__cxx1112basic_stringIcSt11char_traitsIcESaIcEEERS5_
libparameter.so:_ZNK26CParameterMgrFullConnector20isOutputRawFormatHexEv
libparameter.so:_ZNK26CParameterMgrFullConnector21exportSingleDomainXmlERNSt7__cxx1112basic_stringIcSt11char_traitsIcESaIcEEERKS5_bbS6_
libparameter.so:_ZNK28CInstanceConfigurableElement14getArrayLengthEv
libparameter.so:_ZNK28CInstanceConfigurableElement14getMappingDataERKNSt7__cxx1112basic_stringIcSt11char_traitsIcESaIcEEERPS6_
libparameter.so:_ZNK28CInstanceConfigurableElement14getTypeElementEv
libparameter.so:_ZNK28CInstanceConfigurableElement14showPropertiesERNSt7__cxx1112basic_stringIcSt11char_traitsIcESaIcEEE
libparameter.so:_ZNK28CInstanceConfigurableElement14structureToXmlER11CXmlElementR22CXmlSerializingContext
libparameter.so:_ZNK28CInstanceConfigurableElement17getXmlElementNameB5cxx11Ev
libparameter.so:_ZNK28CInstanceConfigurableElement19getFormattedMappingB5cxx11Ev
libparameter.so:_ZNK28CInstanceConfigurableElement27fillSyncerSetFromDescendantER10CSyncerSet
libparameter.so:_ZNK28CInstanceConfigurableElement4syncER23CParameterAccessContext
libparameter.so:_ZNK28CInstanceConfigurableElement7getKindB5cxx11Ev
libparameter.so:_ZNK28CInstanceConfigurableElement8isScalarEv
libparameter.so:_ZNK28CInstanceConfigurableElement9getSyncerEv
libparameter.so:_ZNK30CParameterMgrPlatformConnector12getSchemaUriB5cxx11Ev
libparameter.so:_ZNK30CParameterMgrPlatformConnector19createElementHandleERKNSt7__cxx1112basic_stringIcSt11char_traitsIcESaIcEEERS5_
libparameter.so:_ZNK30CParameterMgrPlatformConnector21createParameterHandleERKNSt7__cxx1112basic_stringIcSt11char_traitsIcESaIcEEERS5_
libparameter.so:_ZNK30CParameterMgrPlatformConnector21getSelectionCriterionERKNSt7__cxx1112basic_stringIcSt11char_traitsIcESaIcEEE
libparameter.so:_ZNK30CParameterMgrPlatformConnector25getForceNoRemoteInterfaceEv
libparameter.so:_ZNK30CParameterMgrPlatformConnector25getValidateSchemasOnStartEv
libparameter.so:_ZNK30CParameterMgrPlatformConnector28getFailureOnMissingSubsystemEv
libparameter.so:_ZNK30CParameterMgrPlatformConnector30getFailureOnFailedSettingsLoadEv
libparameter.so:_ZNK30CParameterMgrPlatformConnector9isStartedEv
libparameter.so:_ZNK8CElement11dumpContentB5cxx11ERN7utility12ErrorContextEm
libparameter.so:_ZNK8CElement11getPathNameB5cxx11Ev
libparameter.so:_ZNK8CElement12listChildrenERNSt7__cxx1112basic_stringIcSt11char_traitsIcESaIcEEE
libparameter.so:_ZNK8CElement13childrenToXmlER11CXmlElementR22CXmlSerializingContext
libparameter.so:_ZNK8CElement13getNbChildrenEv
libparameter.so:_ZNK8CElement14findDescendantER14CPathNavigator
libparameter.so:_ZNK8CElement14getDescriptionB5cxx11Ev
libparameter.so:_ZNK8CElement14isDescendantOfEPKS_
libparameter.so:_ZNK8CElement14showPropertiesERNSt7__cxx1112basic_stringIcSt11char_traitsIcESaIcEEE
libparameter.so:_ZNK8CElement15findChildOfKindERKNSt7__cxx1112basic_stringIcSt11char_traitsIcESaIcEEE
libparameter.so:_ZNK8CElement16getQualifiedPathB5cxx11Ev
libparameter.so:_ZNK8CElement17getXmlElementNameB5cxx11Ev
libparameter.so:_ZNK8CElement17listChildrenPathsERNSt7__cxx1112basic_stringIcSt11char_traitsIcESaIcEEE
libparameter.so:_ZNK8CElement18childrenAreDynamicEv
libparameter.so:_ZNK8CElement18listQualifiedPathsB5cxx11Ebm
libparameter.so:_ZNK8CElement19setXmlNameAttributeER11CXmlElement
libparameter.so:_ZNK8CElement23showDescriptionPropertyERNSt7__cxx1112basic_stringIcSt11char_traitsIcESaIcEEE
libparameter.so:_ZNK8CElement26setXmlDescriptionAttributeER11CXmlElement
libparameter.so:_ZNK8CElement5toXmlER11CXmlElementR22CXmlSerializingContext
libparameter.so:_ZNK8CElement7getNameB5cxx11Ev
libparameter.so:_ZNK8CElement7getPathB5cxx11Ev
libparameter.so:_ZNK8CElement8getChildEm
libparameter.so:_ZNK8CElement8logValueB5cxx11ERN7utility12ErrorContextE
libparameter.so:_ZNK8CElement9findChildERKNSt7__cxx1112basic_stringIcSt11char_traitsIcESaIcEEE
libparameter.so:_ZNK8CElement9getParentEv
libparameter.so:_ZThn144_N10CSubsystem6mapEndEv
libparameter.so:_ZThn144_N10CSubsystem8mapBeginEP28CInstanceConfigurableElementRbRNSt7__cxx1112basic_stringIcSt11char_traitsIcESaIcEEE
libparameter.so:_ZThn144_N10CSubsystemD0Ev
libparameter.so:_ZThn144_N10CSubsystemD1Ev
libparameter.so:_ZThn8_N10CSubsystemD0Ev
libparameter.so:_ZThn8_N10CSubsystemD1Ev
libparameter.so:_ZThn8_N12CTypeElementD0Ev
libparameter.so:_ZThn8_N12CTypeElementD1Ev
libparameter.so:_ZThn8_N8CElementD0Ev
libparameter.so:_ZThn8_N8CElementD1Ev
libparameter.so:_ZThn8_NK12CTypeElement5toXmlER11CXmlElementR22CXmlSerializingContext
libparameter.so:_ZThn8_NK14CParameterType5toXmlER11CXmlElementR22CXmlSerializingContext
libparameter.so:_ZThn8_NK20CConfigurableElement5toXmlER11CXmlElementR22CXmlSerializingContext
libparameter.so:_ZThn8_NK8CElement5toXmlER11CXmlElementR22CXmlSerializingContext
libremote-processor.so:_ZN14CAnswerMessage14fillDataToSendEv
libremote-processor.so:_ZN14CAnswerMessage19collectReceivedDataEv
libremote-processor.so:_ZN14CAnswerMessage9setAnswerERKNSt7__cxx1112basic_stringIcSt11char_traitsIcESaIcEEE
libremote-processor.so:_ZN14CAnswerMessageC1ERKNSt7__cxx1112basic_stringIcSt11char_traitsIcESaIcEEEb
libremote-processor.so:_ZN14CAnswerMessageC1Ev
libremote-processor.so:_ZN14CAnswerMessageC2ERKNSt7__cxx1112basic_stringIcSt11char_traitsIcESaIcEEEb
libremote-processor.so:_ZN14CAnswerMessageC2Ev
libremote-processor.so:_ZN15CRequestMessage10setCommandERKNSt7__cxx1112basic_stringIcSt11char_traitsIcESaIcEEE
libremote-processor.so:_ZN15CRequestMessage11addArgumentERKNSt7__cxx1112basic_stringIcSt11char_traitsIcESaIcEEE
libremote-processor.so:_ZN15CRequestMessage14fillDataToSendEv
libremote-processor.so:_ZN15CRequestMessage19collectReceivedDataEv
libremote-processor.so:_ZN15CRequestMessage4trimERKNSt7__cxx1112basic_stringIcSt11char_traitsIcESaIcEEE
libremote-processor.so:_ZN15CRequestMessageC1ERKNSt7__cxx1112basic_stringIcSt11char_traitsIcESaIcEEE
libremote-processor.so:_ZN15CRequestMessageC1Ev
libremote-processor.so:_ZN15CRequestMessageC2ERKNSt7__cxx1112basic_stringIcSt11char_traitsIcESaIcEEE
libremote-processor.so:_ZN15CRequestMessageC2Ev
libremote-processor.so:_ZN22CRemoteProcessorServer14acceptRegisterER21IRemoteCommandHandler
libremote-processor.so:_ZN22CRemoteProcessorServer19handleNewConnectionER21IRemoteCommandHandler
libremote-processor.so:_ZN22CRemoteProcessorServer4stopEv
libremote-processor.so:_ZN22CRemoteProcessorServer5startERNSt7__cxx1112basic_stringIcSt11char_traitsIcESaIcEEE
libremote-processor.so:_ZN22CRemoteProcessorServer7processER21IRemoteCommandHandler
libremote-processor.so:_ZN22CRemoteProcessorServerC1Et
libremote-processor.so:_ZN22CRemoteProcessorServerC2Et
libremote-processor.so:_ZN22CRemoteProcessorServerD0Ev
libremote-processor.so:_ZN22CRemoteProcessorServerD1Ev
libremote-processor.so:_ZN22CRemoteProcessorServerD2Ev
libremote-processor.so:_ZN31BackgroundRemoteProcessorServer4stopEv
libremote-processor.so:_ZN31BackgroundRemoteProcessorServer5startERNSt7__cxx1112basic_stringIcSt11char_traitsIcESaIcEEE
libremote-processor.so:_ZN31BackgroundRemoteProcessorServerC1EtOSt10unique_ptrI21IRemoteCommandHandlerSt14default_deleteIS1_EE
libremote-processor.so:_ZN31BackgroundRemoteProcessorServerC2EtOSt10unique_ptrI21IRemoteCommandHandlerSt14default_deleteIS1_EE
libremote-processor.so:_ZN31BackgroundRemoteProcessorServerD0Ev
libremote-processor.so:_ZN31BackgroundRemoteProcessorServerD1Ev
libremote-processor.so:_ZN31BackgroundRemoteProcessorServerD2Ev
libremote-processor.so:_ZN8CMessage10readStringERNSt7__cxx1112basic_stringIcSt11char_traitsIcESaIcEEE
libremote-processor.so:_ZN8CMessage11writeStringERKNSt7__cxx1112basic_stringIcSt11char_traitsIcESaIcEEE
libremote-processor.so:_ZN8CMessage12allocateDataEm
libremote-processor.so:_ZN8CMessage8readDataEPvm
libremote-processor.so:_ZN8CMessage9serializeEO6SocketbRNSt7__cxx1112basic_stringIcSt11char_traitsIcESaIcEEE
libremote-processor.so:_ZN8CMessage9writeDataEPKvm
libremote-processor.so:_ZN8CMessageC1ENS_7MsgTypeE
libremote-processor.so:_ZN8CMessageC1Ev
libremote-processor.so:_ZN8CMessageC2ENS_7MsgTypeE
libremote-processor.so:_ZN8CMessageC2Ev
libremote-processor.so:_ZNK14CAnswerMessage11getDataSizeEv
libremote-processor.so:_ZNK14CAnswerMessage7successEv
libremote-processor.so:_ZNK14CAnswerMessage9getAnswerB5cxx11Ev
libremote-processor.so:_ZNK15CRequestMessage10getCommandB5cxx11Ev
libremote-processor.so:_ZNK15CRequestMessage11getArgumentB5cxx11Em
libremote-processor.so:_ZNK15CRequestMessage11getDataSizeEv
libremote-processor.so:_ZNK15CRequestMessage12getArgumentsB5cxx11Ev
libremote-processor.so:_ZNK15CRequestMessage13packArgumentsB5cxx11Emm
libremote-processor.so:_ZNK15CRequestMessage16getArgumentCountEv
libremote-processor.so:_ZNK8CMessage13getStringSizeERKNSt7__cxx1112basic_stringIcSt11char_traitsIcESaIcEEE
libremote-processor.so:_ZNK8CMessage13isValidAccessEmm
libremote-processor.so:_ZNK8CMessage15computeChecksumEv
libremote-processor.so:_ZNK8CMessage20getRemainingDataSizeEv
libremote-processor.so:_ZNK8CMessage8getMsgIdEv
libremote-processor.so:_ZThn48_N15CRequestMessage11addArgumentERKNSt7__cxx1112basic_stringIcSt11char_traitsIcESaIcEEE
libremote-processor.so:_ZThn48_NK15CRequestMessage10getCommandB5cxx11Ev
libremote-processor.so:_ZThn48_NK15CRequestMessage11getArgumentB5cxx11Em
libremote-processor.so:_ZThn48_NK15CRequestMessage12getArgumentsB5cxx11Ev
libremote-processor.so:_ZThn48_NK15CRequestMessage13packArgumentsB5cxx11Emm
libremote-processor.so:_ZThn48_NK15CRequestMessage16getArgumentCountEv
